; Function Attrs: mustprogress uwtable
define void @_ZN3nix22makeEmptyInputAccessorEv(ptr dead_on_unwind noalias nocapture writable writeonly sret(%"class.nix::ref.4") align 8 %0) local_unnamed_addr #4 personality ptr @__gxx_personality_v0 {
  %2 = alloca %"class.nix::ref", align 8
  %3 = load atomic i8, ptr @_ZGVZN3nix22makeEmptyInputAccessorEvE5empty acquire, align 8
  %4 = icmp eq i8 %3, 0
  br i1 %4, label %5, label %11, !prof !4

5:                                                ; preds = %1
  %6 = tail call i32 @__cxa_guard_acquire(ptr nonnull @_ZGVZN3nix22makeEmptyInputAccessorEvE5empty) #19
  %.not = icmp eq i32 %6, 0
  br i1 %.not, label %11, label %7

7:                                                ; preds = %5
  invoke void @_ZN3nix23makeMemoryInputAccessorEv(ptr dead_on_unwind nonnull writable sret(%"class.nix::ref") align 8 %2)
          to label %8 unwind label %23

8:                                                ; preds = %7
  invoke void @_ZNK3nix3refINS_19MemoryInputAccessorEE4castINS_13InputAccessorEEENS0_IT_EEv(ptr dead_on_unwind nonnull writable sret(%"class.nix::ref.4") align 8 @_ZZN3nix22makeEmptyInputAccessorEvE5empty, ptr noundef nonnull align 8 dereferenceable(16) %2)
          to label %9 unwind label %25

9:                                                ; preds = %8
  call void @_ZN3nix3refINS_19MemoryInputAccessorEED2Ev(ptr noundef nonnull align 8 dereferenceable(16) %2) #19
  %10 = call i32 @__cxa_atexit(ptr nonnull @_ZN3nix3refINS_13InputAccessorEED2Ev, ptr nonnull @_ZZN3nix22makeEmptyInputAccessorEvE5empty, ptr nonnull @__dso_handle) #19
  call void @__cxa_guard_release(ptr nonnull @_ZGVZN3nix22makeEmptyInputAccessorEvE5empty) #19
  br label %11

11:                                               ; preds = %9, %5, %1
  %12 = load ptr, ptr @_ZZN3nix22makeEmptyInputAccessorEvE5empty, align 8
  store ptr %12, ptr %0, align 8
  %13 = getelementptr inbounds i8, ptr %0, i64 8
  %14 = load ptr, ptr getelementptr inbounds (%"class.nix::ref.4", ptr @_ZZN3nix22makeEmptyInputAccessorEvE5empty, i64 0, i32 0, i32 0, i32 1, i32 0), align 8
  store ptr %14, ptr %13, align 8
  %.not.i.i.i.i = icmp eq ptr %14, null
  br i1 %.not.i.i.i.i, label %_ZN3nix3refINS_13InputAccessorEEC2ERKS2_.exit, label %15

15:                                               ; preds = %11
  %16 = getelementptr inbounds i8, ptr %14, i64 8
  %17 = load i8, ptr @__libc_single_threaded, align 1
  %.not.i.i.i.i.i = icmp eq i8 %17, 0
  br i1 %.not.i.i.i.i.i, label %21, label %18

18:                                               ; preds = %15
  %19 = load i32, ptr %16, align 4
  %20 = add nsw i32 %19, 1
  store i32 %20, ptr %16, align 4
  br label %_ZN3nix3refINS_13InputAccessorEEC2ERKS2_.exit

21:                                               ; preds = %15
  %22 = atomicrmw volatile add ptr %16, i32 1 acq_rel, align 4
  br label %_ZN3nix3refINS_13InputAccessorEEC2ERKS2_.exit

_ZN3nix3refINS_13InputAccessorEEC2ERKS2_.exit:    ; preds = %11, %18, %21
  ret void

23:                                               ; preds = %7
  %24 = landingpad { ptr, i32 }
          cleanup
  br label %27

25:                                               ; preds = %8
  %26 = landingpad { ptr, i32 }
          cleanup
  call void @_ZN3nix3refINS_19MemoryInputAccessorEED2Ev(ptr noundef nonnull align 8 dereferenceable(16) %2) #19
  br label %27

27:                                               ; preds = %25, %23
  %.pn = phi { ptr, i32 } [ %26, %25 ], [ %24, %23 ]
  call void @__cxa_guard_abort(ptr nonnull @_ZGVZN3nix22makeEmptyInputAccessorEvE5empty) #19
  resume { ptr, i32 } %.pn
}